target datalayout = "e-m:e-p270:32:32-p271:32:32-p272:64:64-i64:64-i128:128-f80:128-n8:16:32:64-S128"
target triple = "x86_64-pc-linux-gnu"

%struct.Rwr_Node_t_ = type <{ i32, i32, i16, i16, i16, i32, [6 x i8], ptr, ptr, ptr }>
%struct.Rwr_Man_t_ = type { i32, ptr, ptr, ptr, ptr, ptr, ptr, ptr, ptr, ptr, ptr, ptr, i32, i32, i32, i32, i32, ptr, ptr, ptr, ptr, ptr, i32, i32, i32, i32, i32, [222 x i32], i32, i32, i32, i64, i64, i64, i64, i64, i64, i64 }

; Function Attrs: nounwind uwtable
define i32 @Rwr_GetBushSumOfVolumes(ptr noundef %0, i32 noundef %1) #0 {
  %3 = alloca ptr, align 8
  %4 = alloca i32, align 4
  %5 = alloca ptr, align 8
  %6 = alloca i32, align 4
  %7 = alloca i32, align 4
  store ptr %0, ptr %3, align 8
  store i32 %1, ptr %4, align 4
  store i32 0, ptr %7, align 4
  %8 = load ptr, ptr %3, align 8
  %9 = getelementptr inbounds %struct.Rwr_Man_t_, ptr %8, i32 0, i32 9
  %10 = load ptr, ptr %9, align 8
  %11 = load i32, ptr %4, align 4
  %12 = sext i32 %11 to i64
  %13 = getelementptr inbounds ptr, ptr %10, i64 %12
  %14 = load ptr, ptr %13, align 8
  store ptr %14, ptr %5, align 8
  br label %15

15:                                               ; preds = %43, %2
  %16 = load ptr, ptr %5, align 8
  %17 = icmp ne ptr %16, null
  br i1 %17, label %18, label %47

18:                                               ; preds = %15
  %19 = load ptr, ptr %5, align 8
  %20 = getelementptr inbounds %struct.Rwr_Node_t_, ptr %19, i32 0, i32 5
  %21 = load i32, ptr %20, align 2
  %22 = and i32 %21, 65535
  %23 = load ptr, ptr %3, align 8
  %24 = getelementptr inbounds %struct.Rwr_Man_t_, ptr %23, i32 0, i32 1
  %25 = load ptr, ptr %24, align 8
  %26 = load ptr, ptr %5, align 8
  %27 = getelementptr inbounds %struct.Rwr_Node_t_, ptr %26, i32 0, i32 5
  %28 = load i32, ptr %27, align 2
  %29 = and i32 %28, 65535
  %30 = zext i32 %29 to i64
  %31 = getelementptr inbounds i16, ptr %25, i64 %30
  %32 = load i16, ptr %31, align 2
  %33 = zext i16 %32 to i32
  %34 = icmp ne i32 %22, %33
  br i1 %34, label %35, label %36

35:                                               ; preds = %18
  br label %43

36:                                               ; preds = %18
  store i32 0, ptr %6, align 4
  %37 = load ptr, ptr %3, align 8
  call void @Rwr_ManIncTravId(ptr noundef %37)
  %38 = load ptr, ptr %3, align 8
  %39 = load ptr, ptr %5, align 8
  call void @Rwr_Trav2_rec(ptr noundef %38, ptr noundef %39, ptr noundef %6)
  %40 = load i32, ptr %6, align 4
  %41 = load i32, ptr %7, align 4
  %42 = add nsw i32 %41, %40
  store i32 %42, ptr %7, align 4
  br label %43

43:                                               ; preds = %36, %35
  %44 = load ptr, ptr %5, align 8
  %45 = getelementptr inbounds %struct.Rwr_Node_t_, ptr %44, i32 0, i32 9
  %46 = load ptr, ptr %45, align 8
  store ptr %46, ptr %5, align 8
  br label %15, !llvm.loop !6

47:                                               ; preds = %15
  %48 = load i32, ptr %7, align 4
  ret i32 %48
}