; Function Attrs: nounwind uwtable
define i32 @Rwr_GetBushSumOfVolumes(ptr noundef %0, i32 noundef %1) local_unnamed_addr #1 {
  %3 = alloca i32, align 4
  %4 = getelementptr inbounds nuw i8, ptr %0, i64 72
  %5 = load ptr, ptr %4, align 8
  %6 = sext i32 %1 to i64
  %7 = getelementptr inbounds ptr, ptr %5, i64 %6
  %.01113 = load ptr, ptr %7, align 8
  %.not14 = icmp eq ptr %.01113, null
  br i1 %.not14, label %._crit_edge, label %.lr.ph

.lr.ph:                                           ; preds = %2
  %8 = getelementptr inbounds nuw i8, ptr %0, i64 8
  br label %9

9:                                                ; preds = %.lr.ph, %21
  %.01116 = phi ptr [ %.01113, %.lr.ph ], [ %.011, %21 ]
  %.015 = phi i32 [ 0, %.lr.ph ], [ %.1, %21 ]
  %10 = getelementptr inbounds nuw i8, ptr %.01116, i64 14
  %11 = load i32, ptr %10, align 2
  %12 = and i32 %11, 65535
  %13 = load ptr, ptr %8, align 8
  %14 = zext nneg i32 %12 to i64
  %15 = getelementptr inbounds nuw i16, ptr %13, i64 %14
  %16 = load i16, ptr %15, align 2
  %17 = trunc i32 %11 to i16
  %.not12 = icmp eq i16 %16, %17
  br i1 %.not12, label %18, label %21

18:                                               ; preds = %9
  store i32 0, ptr %3, align 4
  tail call void @Rwr_ManIncTravId(ptr noundef nonnull %0) #7
  call void @Rwr_Trav2_rec(ptr noundef nonnull %0, ptr noundef nonnull %.01116, ptr noundef nonnull %3)
  %19 = load i32, ptr %3, align 4
  %20 = add nsw i32 %19, %.015
  br label %21

21:                                               ; preds = %9, %18
  %.1 = phi i32 [ %.015, %9 ], [ %20, %18 ]
  %22 = getelementptr inbounds nuw i8, ptr %.01116, i64 40
  %.011 = load ptr, ptr %22, align 8
  %.not = icmp eq ptr %.011, null
  br i1 %.not, label %._crit_edge, label %9, !llvm.loop !6

._crit_edge:                                      ; preds = %21, %2
  %.0.lcssa = phi i32 [ 0, %2 ], [ %.1, %21 ]
  ret i32 %.0.lcssa
}